target datalayout = "e-m:e-p270:32:32-p271:32:32-p272:64:64-i64:64-i128:128-f80:128-n8:16:32:64-S128"
target triple = "x86_64-pc-linux-gnu"

%"struct.llvm::rdf::RegisterRef" = type { i32, %"struct.llvm::LaneBitmask" }
%"struct.llvm::LaneBitmask" = type { i64 }
%"struct.llvm::rdf::DataFlowGraph" = type { %"class.std::unique_ptr", ptr, ptr, ptr, %"struct.llvm::rdf::PhysicalRegisterInfo", ptr, ptr, ptr, %"struct.llvm::rdf::RegisterAggr", %"struct.llvm::rdf::NodeAddr", %"struct.llvm::rdf::NodeAllocator", %"class.std::map", %"struct.llvm::rdf::LaneMaskIndex", %"struct.llvm::rdf::DataFlowGraph::Config", %"class.std::set", %"class.llvm::BitVector" }
%"class.std::unique_ptr" = type { %"struct.std::__uniq_ptr_data" }
%"struct.std::__uniq_ptr_data" = type { %"class.std::__uniq_ptr_impl" }
%"class.std::__uniq_ptr_impl" = type { %"class.std::tuple" }
%"class.std::tuple" = type { %"struct.std::_Tuple_impl" }
%"struct.std::_Tuple_impl" = type { %"struct.std::_Head_base.1" }
%"struct.std::_Head_base.1" = type { ptr }
%"struct.llvm::rdf::PhysicalRegisterInfo" = type { ptr, %"struct.llvm::rdf::IndexedSet", %"class.std::vector.2", %"class.std::vector.7", %"class.std::vector.12", %"class.std::vector.17" }
%"struct.llvm::rdf::IndexedSet" = type { %"class.std::vector" }
%"class.std::vector" = type { %"struct.std::_Vector_base" }
%"struct.std::_Vector_base" = type { %"struct.std::_Vector_base<const unsigned int *, std::allocator<const unsigned int *>>::_Vector_impl" }
%"struct.std::_Vector_base<const unsigned int *, std::allocator<const unsigned int *>>::_Vector_impl" = type { %"struct.std::_Vector_base<const unsigned int *, std::allocator<const unsigned int *>>::_Vector_impl_data" }
%"struct.std::_Vector_base<const unsigned int *, std::allocator<const unsigned int *>>::_Vector_impl_data" = type { ptr, ptr, ptr }
%"class.std::vector.2" = type { %"struct.std::_Vector_base.3" }
%"struct.std::_Vector_base.3" = type { %"struct.std::_Vector_base<llvm::rdf::PhysicalRegisterInfo::RegInfo, std::allocator<llvm::rdf::PhysicalRegisterInfo::RegInfo>>::_Vector_impl" }
%"struct.std::_Vector_base<llvm::rdf::PhysicalRegisterInfo::RegInfo, std::allocator<llvm::rdf::PhysicalRegisterInfo::RegInfo>>::_Vector_impl" = type { %"struct.std::_Vector_base<llvm::rdf::PhysicalRegisterInfo::RegInfo, std::allocator<llvm::rdf::PhysicalRegisterInfo::RegInfo>>::_Vector_impl_data" }
%"struct.std::_Vector_base<llvm::rdf::PhysicalRegisterInfo::RegInfo, std::allocator<llvm::rdf::PhysicalRegisterInfo::RegInfo>>::_Vector_impl_data" = type { ptr, ptr, ptr }
%"class.std::vector.7" = type { %"struct.std::_Vector_base.8" }
%"struct.std::_Vector_base.8" = type { %"struct.std::_Vector_base<llvm::rdf::PhysicalRegisterInfo::UnitInfo, std::allocator<llvm::rdf::PhysicalRegisterInfo::UnitInfo>>::_Vector_impl" }
%"struct.std::_Vector_base<llvm::rdf::PhysicalRegisterInfo::UnitInfo, std::allocator<llvm::rdf::PhysicalRegisterInfo::UnitInfo>>::_Vector_impl" = type { %"struct.std::_Vector_base<llvm::rdf::PhysicalRegisterInfo::UnitInfo, std::allocator<llvm::rdf::PhysicalRegisterInfo::UnitInfo>>::_Vector_impl_data" }
%"struct.std::_Vector_base<llvm::rdf::PhysicalRegisterInfo::UnitInfo, std::allocator<llvm::rdf::PhysicalRegisterInfo::UnitInfo>>::_Vector_impl_data" = type { ptr, ptr, ptr }
%"class.std::vector.12" = type { %"struct.std::_Vector_base.13" }
%"struct.std::_Vector_base.13" = type { %"struct.std::_Vector_base<llvm::rdf::PhysicalRegisterInfo::MaskInfo, std::allocator<llvm::rdf::PhysicalRegisterInfo::MaskInfo>>::_Vector_impl" }
%"struct.std::_Vector_base<llvm::rdf::PhysicalRegisterInfo::MaskInfo, std::allocator<llvm::rdf::PhysicalRegisterInfo::MaskInfo>>::_Vector_impl" = type { %"struct.std::_Vector_base<llvm::rdf::PhysicalRegisterInfo::MaskInfo, std::allocator<llvm::rdf::PhysicalRegisterInfo::MaskInfo>>::_Vector_impl_data" }
%"struct.std::_Vector_base<llvm::rdf::PhysicalRegisterInfo::MaskInfo, std::allocator<llvm::rdf::PhysicalRegisterInfo::MaskInfo>>::_Vector_impl_data" = type { ptr, ptr, ptr }
%"class.std::vector.17" = type { %"struct.std::_Vector_base.18" }
%"struct.std::_Vector_base.18" = type { %"struct.std::_Vector_base<llvm::rdf::PhysicalRegisterInfo::AliasInfo, std::allocator<llvm::rdf::PhysicalRegisterInfo::AliasInfo>>::_Vector_impl" }
%"struct.std::_Vector_base<llvm::rdf::PhysicalRegisterInfo::AliasInfo, std::allocator<llvm::rdf::PhysicalRegisterInfo::AliasInfo>>::_Vector_impl" = type { %"struct.std::_Vector_base<llvm::rdf::PhysicalRegisterInfo::AliasInfo, std::allocator<llvm::rdf::PhysicalRegisterInfo::AliasInfo>>::_Vector_impl_data" }
%"struct.std::_Vector_base<llvm::rdf::PhysicalRegisterInfo::AliasInfo, std::allocator<llvm::rdf::PhysicalRegisterInfo::AliasInfo>>::_Vector_impl_data" = type { ptr, ptr, ptr }
%"struct.llvm::rdf::RegisterAggr" = type { %"class.llvm::BitVector", ptr }
%"struct.llvm::rdf::NodeAddr" = type <{ ptr, i32, [4 x i8] }>
%"struct.llvm::rdf::NodeAllocator" = type { i32, i32, i32, ptr, %"class.std::vector.22", %"class.llvm::BumpPtrAllocatorImpl" }
%"class.std::vector.22" = type { %"struct.std::_Vector_base.23" }
%"struct.std::_Vector_base.23" = type { %"struct.std::_Vector_base<char *, std::allocator<char *>>::_Vector_impl" }
%"struct.std::_Vector_base<char *, std::allocator<char *>>::_Vector_impl" = type { %"struct.std::_Vector_base<char *, std::allocator<char *>>::_Vector_impl_data" }
%"struct.std::_Vector_base<char *, std::allocator<char *>>::_Vector_impl_data" = type { ptr, ptr, ptr }
%"class.llvm::BumpPtrAllocatorImpl" = type { ptr, ptr, %"class.llvm::SmallVector.28", %"class.llvm::SmallVector.33", i64, i64 }
%"class.llvm::SmallVector.28" = type { %"class.llvm::SmallVectorImpl.29", %"struct.llvm::SmallVectorStorage.32" }
%"class.llvm::SmallVectorImpl.29" = type { %"class.llvm::SmallVectorTemplateBase.30" }
%"class.llvm::SmallVectorTemplateBase.30" = type { %"class.llvm::SmallVectorTemplateCommon.31" }
%"class.llvm::SmallVectorTemplateCommon.31" = type { %"class.llvm::SmallVectorBase" }
%"class.llvm::SmallVectorBase" = type { ptr, i32, i32 }
%"struct.llvm::SmallVectorStorage.32" = type { [32 x i8] }
%"class.llvm::SmallVector.33" = type { %"class.llvm::SmallVectorImpl.34" }
%"class.llvm::SmallVectorImpl.34" = type { %"class.llvm::SmallVectorTemplateBase.35" }
%"class.llvm::SmallVectorTemplateBase.35" = type { %"class.llvm::SmallVectorTemplateCommon.36" }
%"class.llvm::SmallVectorTemplateCommon.36" = type { %"class.llvm::SmallVectorBase" }
%"class.std::map" = type { %"class.std::_Rb_tree" }
%"class.std::_Rb_tree" = type { %"struct.std::_Rb_tree<llvm::MachineBasicBlock *, std::pair<llvm::MachineBasicBlock *const, llvm::rdf::NodeAddr<llvm::rdf::BlockNode *>>, std::_Select1st<std::pair<llvm::MachineBasicBlock *const, llvm::rdf::NodeAddr<llvm::rdf::BlockNode *>>>, std::less<llvm::MachineBasicBlock *>>::_Rb_tree_impl" }
%"struct.std::_Rb_tree<llvm::MachineBasicBlock *, std::pair<llvm::MachineBasicBlock *const, llvm::rdf::NodeAddr<llvm::rdf::BlockNode *>>, std::_Select1st<std::pair<llvm::MachineBasicBlock *const, llvm::rdf::NodeAddr<llvm::rdf::BlockNode *>>>, std::less<llvm::MachineBasicBlock *>>::_Rb_tree_impl" = type { [8 x i8], %"struct.std::_Rb_tree_header" }
%"struct.std::_Rb_tree_header" = type { %"struct.std::_Rb_tree_node_base", i64 }
%"struct.std::_Rb_tree_node_base" = type { i32, ptr, ptr, ptr }
%"struct.llvm::rdf::LaneMaskIndex" = type { %"struct.llvm::rdf::IndexedSet.41" }
%"struct.llvm::rdf::IndexedSet.41" = type { %"class.std::vector.42" }
%"class.std::vector.42" = type { %"struct.std::_Vector_base.43" }
%"struct.std::_Vector_base.43" = type { %"struct.std::_Vector_base<llvm::LaneBitmask, std::allocator<llvm::LaneBitmask>>::_Vector_impl" }
%"struct.std::_Vector_base<llvm::LaneBitmask, std::allocator<llvm::LaneBitmask>>::_Vector_impl" = type { %"struct.std::_Vector_base<llvm::LaneBitmask, std::allocator<llvm::LaneBitmask>>::_Vector_impl_data" }
%"struct.std::_Vector_base<llvm::LaneBitmask, std::allocator<llvm::LaneBitmask>>::_Vector_impl_data" = type { ptr, ptr, ptr }
%"struct.llvm::rdf::DataFlowGraph::Config" = type { i32, %"class.llvm::SmallVector.47", %"class.std::set" }
%"class.llvm::SmallVector.47" = type { %"class.llvm::SmallVectorImpl.48", %"struct.llvm::SmallVectorStorage.51" }
%"class.llvm::SmallVectorImpl.48" = type { %"class.llvm::SmallVectorTemplateBase.49" }
%"class.llvm::SmallVectorTemplateBase.49" = type { %"class.llvm::SmallVectorTemplateCommon.50" }
%"class.llvm::SmallVectorTemplateCommon.50" = type { %"class.llvm::SmallVectorBase" }
%"struct.llvm::SmallVectorStorage.51" = type { [48 x i8] }
%"class.std::set" = type { %"class.std::_Rb_tree.52" }
%"class.std::_Rb_tree.52" = type { %"struct.std::_Rb_tree<unsigned int, unsigned int, std::_Identity<unsigned int>, std::less<unsigned int>>::_Rb_tree_impl" }
%"struct.std::_Rb_tree<unsigned int, unsigned int, std::_Identity<unsigned int>, std::less<unsigned int>>::_Rb_tree_impl" = type { [8 x i8], %"struct.std::_Rb_tree_header" }
%"class.llvm::BitVector" = type <{ %"class.llvm::SmallVector", i32, [4 x i8] }>
%"class.llvm::SmallVector" = type { %"class.llvm::SmallVectorImpl", %"struct.llvm::SmallVectorStorage" }
%"class.llvm::SmallVectorImpl" = type { %"class.llvm::SmallVectorTemplateBase" }
%"class.llvm::SmallVectorTemplateBase" = type { %"class.llvm::SmallVectorTemplateCommon" }
%"class.llvm::SmallVectorTemplateCommon" = type { %"class.llvm::SmallVectorBase" }
%"struct.llvm::SmallVectorStorage" = type { [48 x i8] }
%"struct.llvm::rdf::NodeBase" = type { i16, i16, i32, %union.anon }
%union.anon = type { %"struct.llvm::rdf::NodeBase::Ref_struct" }
%"struct.llvm::rdf::NodeBase::Ref_struct" = type { i32, i32, %union.anon.60, %union.anon.61 }
%union.anon.60 = type { %"struct.llvm::rdf::NodeBase::Def_struct" }
%"struct.llvm::rdf::NodeBase::Def_struct" = type { i32, i32 }
%union.anon.61 = type { ptr }
%"struct.llvm::rdf::PackedRegisterRef" = type { i32, i32 }

; Function Attrs: mustprogress nounwind uwtable
define linkonce_odr hidden noundef zeroext i1 @_ZN4llvm10MCRegister18isPhysicalRegisterEj(i32 noundef %0) #0 comdat align 2 {
  %2 = alloca i32, align 4
  store i32 %0, ptr %2, align 4
  %3 = load i32, ptr %2, align 4
  %4 = icmp ule i32 1, %3
  br i1 %4, label %5, label %8

5:                                                ; preds = %1
  %6 = load i32, ptr %2, align 4
  %7 = icmp ult i32 %6, 1073741824
  br label %8

8:                                                ; preds = %5, %1
  %9 = phi i1 [ false, %1 ], [ %7, %5 ]
  ret i1 %9
}

; Function Attrs: mustprogress nounwind uwtable
define linkonce_odr hidden noundef zeroext i1 @_ZN4llvm8Register18isPhysicalRegisterEj(i32 noundef %0) #0 comdat align 2 {
  %2 = alloca i32, align 4
  store i32 %0, ptr %2, align 4
  %3 = load i32, ptr %2, align 4
  %4 = call noundef zeroext i1 @_ZN4llvm10MCRegister18isPhysicalRegisterEj(i32 noundef %3)
  ret i1 %4
}

; Function Attrs: mustprogress nounwind uwtable
define linkonce_odr hidden noundef nonnull align 8 dereferenceable(8) ptr @_ZNKSt6vectorIN4llvm11LaneBitmaskESaIS1_EEixEm(ptr noundef nonnull align 8 dereferenceable(24) %0, i64 noundef %1) #0 comdat align 2 {
  %3 = alloca ptr, align 8
  %4 = alloca i64, align 8
  store ptr %0, ptr %3, align 8
  store i64 %1, ptr %4, align 8
  %5 = load ptr, ptr %3, align 8
  %6 = getelementptr inbounds nuw %"struct.std::_Vector_base.43", ptr %5, i32 0, i32 0
  %7 = getelementptr inbounds nuw %"struct.std::_Vector_base<llvm::LaneBitmask, std::allocator<llvm::LaneBitmask>>::_Vector_impl_data", ptr %6, i32 0, i32 0
  %8 = load ptr, ptr %7, align 8
  %9 = load i64, ptr %4, align 8
  %10 = getelementptr inbounds %"struct.llvm::LaneBitmask", ptr %8, i64 %9
  ret ptr %10
}

; Function Attrs: mustprogress nounwind uwtable
define linkonce_odr hidden i64 @_ZNK4llvm11LaneBitmaskcoEv(ptr noundef nonnull align 8 dereferenceable(8) %0) #0 comdat align 2 {
  %2 = alloca %"struct.llvm::LaneBitmask", align 8
  %3 = alloca ptr, align 8
  store ptr %0, ptr %3, align 8
  %4 = load ptr, ptr %3, align 8
  %5 = getelementptr inbounds nuw %"struct.llvm::LaneBitmask", ptr %4, i32 0, i32 0
  %6 = load i64, ptr %5, align 8
  %7 = xor i64 %6, -1
  call void @_ZN4llvm11LaneBitmaskC2Em(ptr noundef nonnull align 8 dereferenceable(8) %2, i64 noundef %7)
  %8 = getelementptr inbounds nuw %"struct.llvm::LaneBitmask", ptr %2, i32 0, i32 0
  %9 = load i64, ptr %8, align 8
  ret i64 %9
}

; Function Attrs: mustprogress nounwind uwtable
define linkonce_odr hidden void @_ZN4llvm11LaneBitmaskC2Em(ptr noundef nonnull align 8 dereferenceable(8) %0, i64 noundef %1) unnamed_addr #0 comdat align 2 {
  %3 = alloca ptr, align 8
  %4 = alloca i64, align 8
  store ptr %0, ptr %3, align 8
  store i64 %1, ptr %4, align 8
  %5 = load ptr, ptr %3, align 8
  %6 = getelementptr inbounds nuw %"struct.llvm::LaneBitmask", ptr %5, i32 0, i32 0
  %7 = load i64, ptr %4, align 8
  store i64 %7, ptr %6, align 8
  ret void
}

; Function Attrs: mustprogress nounwind uwtable
define linkonce_odr hidden i64 @_ZN4llvm11LaneBitmask7getNoneEv() #0 comdat align 2 {
  %1 = alloca %"struct.llvm::LaneBitmask", align 8
  call void @_ZN4llvm11LaneBitmaskC2Em(ptr noundef nonnull align 8 dereferenceable(8) %1, i64 noundef 0)
  %2 = getelementptr inbounds nuw %"struct.llvm::LaneBitmask", ptr %1, i32 0, i32 0
  %3 = load i64, ptr %2, align 8
  ret i64 %3
}

; Function Attrs: mustprogress nounwind uwtable
define linkonce_odr hidden noundef zeroext i1 @_ZN4llvm3rdf11RegisterRef7isRegIdEj(i32 noundef %0) #0 comdat align 2 {
  %2 = alloca i32, align 4
  store i32 %0, ptr %2, align 4
  %3 = load i32, ptr %2, align 4
  %4 = call noundef zeroext i1 @_ZN4llvm8Register18isPhysicalRegisterEj(i32 noundef %3)
  ret i1 %4
}

; Function Attrs: mustprogress nounwind uwtable
define linkonce_odr hidden i64 @_ZNK4llvm3rdf10IndexedSetINS_11LaneBitmaskELj32EE3getEj(ptr noundef nonnull align 8 dereferenceable(24) %0, i32 noundef %1) #0 comdat align 2 {
  %3 = alloca %"struct.llvm::LaneBitmask", align 8
  %4 = alloca ptr, align 8
  %5 = alloca i32, align 4
  store ptr %0, ptr %4, align 8
  store i32 %1, ptr %5, align 4
  %6 = load ptr, ptr %4, align 8
  %7 = getelementptr inbounds nuw %"struct.llvm::rdf::IndexedSet.41", ptr %6, i32 0, i32 0
  %8 = load i32, ptr %5, align 4
  %9 = sub i32 %8, 1
  %10 = zext i32 %9 to i64
  %11 = call noundef nonnull align 8 dereferenceable(8) ptr @_ZNKSt6vectorIN4llvm11LaneBitmaskESaIS1_EEixEm(ptr noundef nonnull align 8 dereferenceable(24) %7, i64 noundef %10) #11
  call void @llvm.memcpy.p0.p0.i64(ptr align 8 %3, ptr align 8 %11, i64 8, i1 false)
  %12 = getelementptr inbounds nuw %"struct.llvm::LaneBitmask", ptr %3, i32 0, i32 0
  %13 = load i64, ptr %12, align 8
  ret i64 %13
}

; Function Attrs: mustprogress nounwind uwtable
define linkonce_odr hidden i64 @_ZN4llvm11LaneBitmask6getAllEv() #0 comdat align 2 {
  %1 = alloca %"struct.llvm::LaneBitmask", align 8
  %2 = alloca %"struct.llvm::LaneBitmask", align 8
  call void @_ZN4llvm11LaneBitmaskC2Em(ptr noundef nonnull align 8 dereferenceable(8) %2, i64 noundef 0)
  %3 = call i64 @_ZNK4llvm11LaneBitmaskcoEv(ptr noundef nonnull align 8 dereferenceable(8) %2)
  %4 = getelementptr inbounds nuw %"struct.llvm::LaneBitmask", ptr %1, i32 0, i32 0
  store i64 %3, ptr %4, align 8
  %5 = getelementptr inbounds nuw %"struct.llvm::LaneBitmask", ptr %1, i32 0, i32 0
  %6 = load i64, ptr %5, align 8
  ret i64 %6
}

; Function Attrs: mustprogress nounwind uwtable
define linkonce_odr hidden void @_ZN4llvm3rdf11RegisterRefC2EjNS_11LaneBitmaskE(ptr noundef nonnull align 8 dereferenceable(16) %0, i32 noundef %1, i64 %2) unnamed_addr #0 comdat align 2 {
  %4 = alloca %"struct.llvm::LaneBitmask", align 8
  %5 = alloca ptr, align 8
  %6 = alloca i32, align 4
  %7 = getelementptr inbounds nuw %"struct.llvm::LaneBitmask", ptr %4, i32 0, i32 0
  store i64 %2, ptr %7, align 8
  store ptr %0, ptr %5, align 8
  store i32 %1, ptr %6, align 4
  %8 = load ptr, ptr %5, align 8
  %9 = getelementptr inbounds nuw %"struct.llvm::rdf::RegisterRef", ptr %8, i32 0, i32 0
  %10 = load i32, ptr %6, align 4
  store i32 %10, ptr %9, align 8
  %11 = getelementptr inbounds nuw %"struct.llvm::rdf::RegisterRef", ptr %8, i32 0, i32 1
  %12 = load i32, ptr %6, align 4
  %13 = call noundef zeroext i1 @_ZN4llvm3rdf11RegisterRef7isRegIdEj(i32 noundef %12)
  br i1 %13, label %14, label %18

14:                                               ; preds = %3
  %15 = load i32, ptr %6, align 4
  %16 = icmp ne i32 %15, 0
  br i1 %16, label %17, label %18

17:                                               ; preds = %14
  call void @llvm.memcpy.p0.p0.i64(ptr align 8 %11, ptr align 8 %4, i64 8, i1 false)
  br label %21

18:                                               ; preds = %14, %3
  %19 = call i64 @_ZN4llvm11LaneBitmask7getNoneEv()
  %20 = getelementptr inbounds nuw %"struct.llvm::LaneBitmask", ptr %11, i32 0, i32 0
  store i64 %19, ptr %20, align 8
  br label %21

21:                                               ; preds = %18, %17
  ret void
}

; Function Attrs: mustprogress nounwind uwtable
define linkonce_odr hidden i64 @_ZNK4llvm3rdf13LaneMaskIndex19getLaneMaskForIndexEj(ptr noundef nonnull align 8 dereferenceable(24) %0, i32 noundef %1) #0 comdat align 2 {
  %3 = alloca %"struct.llvm::LaneBitmask", align 8
  %4 = alloca ptr, align 8
  %5 = alloca i32, align 4
  store ptr %0, ptr %4, align 8
  store i32 %1, ptr %5, align 4
  %6 = load ptr, ptr %4, align 8
  %7 = load i32, ptr %5, align 4
  %8 = icmp eq i32 %7, 0
  br i1 %8, label %9, label %12

9:                                                ; preds = %2
  %10 = call i64 @_ZN4llvm11LaneBitmask6getAllEv()
  %11 = getelementptr inbounds nuw %"struct.llvm::LaneBitmask", ptr %3, i32 0, i32 0
  store i64 %10, ptr %11, align 8
  br label %16

12:                                               ; preds = %2
  %13 = load i32, ptr %5, align 4
  %14 = call i64 @_ZNK4llvm3rdf10IndexedSetINS_11LaneBitmaskELj32EE3getEj(ptr noundef nonnull align 8 dereferenceable(24) %6, i32 noundef %13)
  %15 = getelementptr inbounds nuw %"struct.llvm::LaneBitmask", ptr %3, i32 0, i32 0
  store i64 %14, ptr %15, align 8
  br label %16

16:                                               ; preds = %12, %9
  %17 = getelementptr inbounds nuw %"struct.llvm::LaneBitmask", ptr %3, i32 0, i32 0
  %18 = load i64, ptr %17, align 8
  ret i64 %18
}

; Function Attrs: mustprogress nounwind uwtable
define linkonce_odr hidden { i32, i64 } @_ZNK4llvm3rdf13DataFlowGraph6unpackENS0_17PackedRegisterRefE(ptr noundef nonnull align 8 dereferenceable(736) %0, i64 %1) #0 comdat align 2 {
  %3 = alloca %"struct.llvm::rdf::RegisterRef", align 8
  %4 = alloca %"struct.llvm::rdf::PackedRegisterRef", align 4
  %5 = alloca ptr, align 8
  %6 = alloca %"struct.llvm::LaneBitmask", align 8
  store i64 %1, ptr %4, align 4
  store ptr %0, ptr %5, align 8
  %7 = load ptr, ptr %5, align 8
  %8 = getelementptr inbounds nuw %"struct.llvm::rdf::PackedRegisterRef", ptr %4, i32 0, i32 0
  %9 = load i32, ptr %8, align 4
  %10 = getelementptr inbounds nuw %"struct.llvm::rdf::DataFlowGraph", ptr %7, i32 0, i32 12
  %11 = getelementptr inbounds nuw %"struct.llvm::rdf::PackedRegisterRef", ptr %4, i32 0, i32 1
  %12 = load i32, ptr %11, align 4
  %13 = call i64 @_ZNK4llvm3rdf13LaneMaskIndex19getLaneMaskForIndexEj(ptr noundef nonnull align 8 dereferenceable(24) %10, i32 noundef %12)
  %14 = getelementptr inbounds nuw %"struct.llvm::LaneBitmask", ptr %6, i32 0, i32 0
  store i64 %13, ptr %14, align 8
  %15 = getelementptr inbounds nuw %"struct.llvm::LaneBitmask", ptr %6, i32 0, i32 0
  %16 = load i64, ptr %15, align 8
  call void @_ZN4llvm3rdf11RegisterRefC2EjNS_11LaneBitmaskE(ptr noundef nonnull align 8 dereferenceable(16) %3, i32 noundef %9, i64 %16)
  %17 = load { i32, i64 }, ptr %3, align 8
  ret { i32, i64 } %17
}

; Function Attrs: mustprogress nounwind uwtable
define linkonce_odr hidden noundef zeroext i16 @_ZN4llvm3rdf9NodeAttrs5flagsEt(i16 noundef zeroext %0) #0 comdat align 2 {
  %2 = alloca i16, align 2
  store i16 %0, ptr %2, align 2
  %3 = load i16, ptr %2, align 2
  %4 = zext i16 %3 to i32
  %5 = and i32 %4, 4064
  %6 = trunc i32 %5 to i16
  ret i16 %6
}

; Function Attrs: mustprogress nounwind uwtable
define dso_local { i32, i64 } @_ZNK4llvm3rdf7RefNode9getRegRefERKNS0_13DataFlowGraphE(ptr noundef nonnull align 8 dereferenceable(32) %0, ptr noundef nonnull align 8 dereferenceable(736) %1) #0 align 2 {
  %3 = alloca %"struct.llvm::rdf::RegisterRef", align 8
  %4 = alloca ptr, align 8
  %5 = alloca ptr, align 8
  %6 = alloca %"struct.llvm::rdf::PackedRegisterRef", align 4
  store ptr %0, ptr %4, align 8
  store ptr %1, ptr %5, align 8
  %7 = load ptr, ptr %4, align 8
  %8 = getelementptr inbounds nuw %"struct.llvm::rdf::NodeBase", ptr %7, i32 0, i32 0
  %9 = load i16, ptr %8, align 8
  %10 = call noundef zeroext i16 @_ZN4llvm3rdf9NodeAttrs5flagsEt(i16 noundef zeroext %9)
  %11 = zext i16 %10 to i32
  %12 = and i32 %11, 128
  %13 = icmp ne i32 %12, 0
  br i1 %13, label %14, label %24

14:                                               ; preds = %2
  %15 = load ptr, ptr %5, align 8
  %16 = getelementptr inbounds nuw %"struct.llvm::rdf::NodeBase", ptr %7, i32 0, i32 3
  %17 = getelementptr inbounds nuw %"struct.llvm::rdf::NodeBase::Ref_struct", ptr %16, i32 0, i32 3
  call void @llvm.memcpy.p0.p0.i64(ptr align 4 %6, ptr align 8 %17, i64 8, i1 false)
  %18 = load i64, ptr %6, align 4
  %19 = call { i32, i64 } @_ZNK4llvm3rdf13DataFlowGraph6unpackENS0_17PackedRegisterRefE(ptr noundef nonnull align 8 dereferenceable(736) %15, i64 %18)
  %20 = getelementptr inbounds nuw { i32, i64 }, ptr %3, i32 0, i32 0
  %21 = extractvalue { i32, i64 } %19, 0
  store i32 %21, ptr %20, align 8
  %22 = getelementptr inbounds nuw { i32, i64 }, ptr %3, i32 0, i32 1
  %23 = extractvalue { i32, i64 } %19, 1
  store i64 %23, ptr %22, align 8
  br label %34

24:                                               ; preds = %2
  %25 = load ptr, ptr %5, align 8
  %26 = getelementptr inbounds nuw %"struct.llvm::rdf::NodeBase", ptr %7, i32 0, i32 3
  %27 = getelementptr inbounds nuw %"struct.llvm::rdf::NodeBase::Ref_struct", ptr %26, i32 0, i32 3
  %28 = load ptr, ptr %27, align 8
  %29 = call { i32, i64 } @_ZNK4llvm3rdf13DataFlowGraph10makeRegRefERKNS_14MachineOperandE(ptr noundef nonnull align 8 dereferenceable(736) %25, ptr noundef nonnull align 8 dereferenceable(32) %28)
  %30 = getelementptr inbounds nuw { i32, i64 }, ptr %3, i32 0, i32 0
  %31 = extractvalue { i32, i64 } %29, 0
  store i32 %31, ptr %30, align 8
  %32 = getelementptr inbounds nuw { i32, i64 }, ptr %3, i32 0, i32 1
  %33 = extractvalue { i32, i64 } %29, 1
  store i64 %33, ptr %32, align 8
  br label %34

34:                                               ; preds = %24, %14
  %35 = load { i32, i64 }, ptr %3, align 8
  ret { i32, i64 } %35
}