; Function Attrs: mustprogress nounwind uwtable
define dso_local { i32, i64 } @_ZNK4llvm3rdf7RefNode9getRegRefERKNS0_13DataFlowGraphE(ptr noundef nonnull readonly align 8 captures(none) dereferenceable(32) %0, ptr noundef nonnull readonly align 8 captures(none) dereferenceable(736) %1) local_unnamed_addr #0 align 2 {
  %3 = load i16, ptr %0, align 8
  %4 = and i16 %3, 128
  %.not = icmp eq i16 %4, 0
  %5 = getelementptr inbounds nuw i8, ptr %0, i64 24
  br i1 %.not, label %16, label %6

6:                                                ; preds = %2
  %.sroa.0.0.copyload = load i64, ptr %5, align 8
  %7 = icmp ult i64 %.sroa.0.0.copyload, 4294967296
  br i1 %7, label %_ZNK4llvm3rdf13DataFlowGraph6unpackENS0_17PackedRegisterRefE.exit, label %8

8:                                                ; preds = %6
  %.sroa.2.0.extract.shift.i = lshr i64 %.sroa.0.0.copyload, 32
  %9 = getelementptr inbounds nuw i8, ptr %1, i64 472
  %10 = add nuw nsw i64 %.sroa.2.0.extract.shift.i, 4294967295
  %11 = and i64 %10, 4294967295
  %12 = load ptr, ptr %9, align 8
  %13 = getelementptr inbounds nuw %"struct.llvm::LaneBitmask", ptr %12, i64 %11
  %.sroa.0.0.copyload.i.i.i = load i64, ptr %13, align 8
  br label %_ZNK4llvm3rdf13DataFlowGraph6unpackENS0_17PackedRegisterRefE.exit

_ZNK4llvm3rdf13DataFlowGraph6unpackENS0_17PackedRegisterRefE.exit: ; preds = %6, %8
  %.sroa.0.0.i.i = phi i64 [ %.sroa.0.0.copyload.i.i.i, %8 ], [ -1, %6 ]
  %.sroa.01.0.extract.trunc.i = trunc i64 %.sroa.0.0.copyload to i32
  %14 = add i32 %.sroa.01.0.extract.trunc.i, -1
  %15 = icmp ult i32 %14, 1073741823
  %spec.select.i.i = select i1 %15, i64 %.sroa.0.0.i.i, i64 0
  %.fca.0.insert.i = insertvalue { i32, i64 } poison, i32 %.sroa.01.0.extract.trunc.i, 0
  %.fca.1.insert.i = insertvalue { i32, i64 } %.fca.0.insert.i, i64 %spec.select.i.i, 1
  br label %19

16:                                               ; preds = %2
  %17 = load ptr, ptr %5, align 8
  %18 = tail call { i32, i64 } @_ZNK4llvm3rdf13DataFlowGraph10makeRegRefERKNS_14MachineOperandE(ptr noundef nonnull align 8 dereferenceable(736) %1, ptr noundef nonnull align 8 dereferenceable(32) %17)
  br label %19

19:                                               ; preds = %16, %_ZNK4llvm3rdf13DataFlowGraph6unpackENS0_17PackedRegisterRefE.exit
  %.pn = phi { i32, i64 } [ %.fca.1.insert.i, %_ZNK4llvm3rdf13DataFlowGraph6unpackENS0_17PackedRegisterRefE.exit ], [ %18, %16 ]
  ret { i32, i64 } %.pn
}